Certificate:
    Data:
        Version: 3 (0x2)
        Serial Number:
            14:14:58:27:65
    Signature Algorithm: sha1WithRSAEncryption
        Issuer: C=FI, O=Spaceify Inc., OU=Root CA, CN=Spaceify Root CA
        Validity
            Not Before: Dec 17 08:59:41 2014 GMT
            Not After : Dec 14 08:59:41 2024 GMT
        Subject: C=FI, O=Spaceify Inc., OU=Edge Client Server  - 1418806766143, CN=edge.spaceify.net
        Subject Public Key Info:
            Public Key Algorithm: rsaEncryption
                Public-Key: (4096 bit)
                Modulus:
                    00:cf:0e:ff:d3:41:ad:03:e3:9a:e7:71:5a:54:14:
                    8c:85:80:c5:0e:73:85:3e:55:e6:f6:40:bb:77:45:
                    b7:a9:76:36:ef:00:ea:ed:40:1f:e0:c7:bd:e2:73:
                    0f:5f:bb:94:28:1a:8f:85:a1:de:01:65:f4:ae:d8:
                    71:6f:b6:78:bc:b8:ef:d5:6f:e8:2e:8b:a1:de:95:
                    82:77:fe:4a:ba:10:e9:55:b8:16:8d:3d:5f:2a:fe:
                    e6:f5:af:07:af:14:a9:48:74:ce:ea:ce:88:1d:7e:
                    cd:a2:ce:d4:8f:62:06:6f:2c:49:2b:de:b1:82:8d:
                    1d:96:66:00:98:31:90:f7:7c:47:d4:0a:a2:ed:30:
                    a8:a7:d9:9c:9d:c6:99:c3:72:f4:ee:d2:c8:83:2f:
                    fb:53:44:58:b2:29:fc:05:1e:22:23:58:a1:54:4b:
                    5d:cb:a1:c4:19:5b:7a:fa:98:25:93:59:ca:51:1d:
                    e0:0c:71:4f:ac:2e:03:bb:28:8c:79:1d:01:42:d9:
                    6b:bf:e4:91:ec:a1:6d:89:84:45:3b:40:57:4b:b3:
                    2d:35:62:5b:a0:a3:53:ca:45:5a:fa:ae:a6:a0:f3:
                    6b:d5:73:84:07:d0:9b:89:c2:bc:c3:72:ae:96:34:
                    ca:aa:c6:3e:91:58:00:e3:45:81:56:8e:37:d4:5e:
                    cf:47:8a:f6:a0:f8:96:71:70:35:73:bd:0a:04:19:
                    61:cf:86:4a:ef:4a:5e:c0:ff:28:b0:a6:41:37:fa:
                    f0:2e:cc:87:9d:50:ff:10:5e:e0:67:9a:47:5b:94:
                    f8:f9:5c:f0:a5:e0:79:9f:b1:5a:07:c5:5f:99:59:
                    c0:5a:49:64:a7:95:bf:3a:af:fe:2b:fc:47:c9:6d:
                    a3:c1:0a:7e:ab:10:34:26:74:12:26:9a:a1:fc:22:
                    aa:da:17:37:4c:4a:79:8a:58:11:2c:e2:9c:a2:65:
                    3a:66:fb:ee:41:29:1c:76:3a:6a:c9:7f:e7:7c:bb:
                    fd:ff:3a:9d:08:d6:d6:3d:71:58:fd:d0:5f:95:9f:
                    d7:9d:f0:23:af:fe:5e:b7:e3:62:a3:30:2a:c6:c1:
                    f8:6b:19:de:03:c3:20:e4:0b:a6:69:d9:b9:06:79:
                    50:7a:76:cf:03:9a:10:24:91:15:b0:3f:b1:9f:64:
                    b6:58:2b:cd:77:eb:fc:fb:9b:00:34:f0:82:90:b5:
                    75:c0:b6:c9:fb:a7:73:56:f5:2b:34:72:5d:4d:a1:
                    83:6b:45:d6:8e:b7:e0:23:1c:4e:5d:e0:ff:67:f9:
                    fe:5e:41:79:52:97:3c:70:9f:67:a3:a1:37:0b:93:
                    7e:83:d5:b3:13:fc:29:0c:e6:f1:22:a0:74:fe:ee:
                    44:5e:af
                Exponent: 65537 (0x10001)
        X509v3 extensions:
            X509v3 Key Usage: critical
                Digital Signature, Key Encipherment
            X509v3 Extended Key Usage: 
                TLS Web Server Authentication, TLS Web Client Authentication
            X509v3 Basic Constraints: critical
                CA:FALSE
            X509v3 Subject Key Identifier: 
                7C:0A:D2:DE:BD:7E:16:9C:C5:9D:97:DE:1F:52:D2:41:7D:28:81:A0
            X509v3 Authority Key Identifier: 
                keyid:C9:B1:57:87:07:75:14:8C:CD:DD:9C:72:25:92:28:0A:EE:DC:B6:6C

    Signature Algorithm: sha1WithRSAEncryption
         b5:07:26:64:44:ee:27:43:92:82:d7:0b:2f:5c:f2:bb:be:bf:
         c4:35:9e:8a:1a:eb:3b:27:56:cc:66:73:64:13:a0:b9:ec:a2:
         a6:9e:ce:b0:2e:88:c0:b3:e4:e7:8a:e0:4e:1b:da:bd:0f:b8:
         dc:56:40:4e:31:95:66:b0:cb:61:03:c8:6d:de:f7:78:27:0b:
         8c:2e:46:80:7d:6b:21:b7:de:a2:26:01:3f:65:97:b6:ea:93:
         16:ef:dc:54:05:df:c0:e9:59:99:3d:c6:81:f6:cb:d3:04:2c:
         6c:95:da:06:cd:ec:51:4f:1b:c1:4e:49:76:c4:51:5c:3c:63:
         84:a2:8e:fa:dd:06:3c:b1:2c:ea:dc:eb:20:f7:b1:a3:f8:59:
         b2:d7:3c:31:b5:ef:45:43:cd:f3:bb:45:8b:63:0f:60:80:c1:
         67:32:ce:57:4c:51:73:da:f6:d3:b8:74:51:55:14:fb:6c:9d:
         64:c1:23:88:47:83:23:af:1c:c0:03:51:57:4c:eb:a6:f5:92:
         b4:1c:9f:56:9a:df:04:7f:21:03:43:67:10:42:d8:05:44:fe:
         aa:33:99:61:60:5c:3b:d6:0d:60:b5:ee:03:13:26:0d:5d:07:
         c4:08:73:3c:12:5c:eb:35:5e:29:d4:be:1b:1f:f0:92:13:e6:
         5d:3b:e2:03:08:d2:53:aa:e3:27:c3:e7:43:4b:85:11:23:6c:
         8f:34:84:12:81:a7:fd:c0:22:87:e6:a7:a0:b1:b7:1e:b3:14:
         26:db:25:4a:cc:ca:e1:19:ff:39:7a:8d:ab:8b:f3:b0:c5:d7:
         9b:35:25:65:7d:91:43:fb:67:6e:d8:bf:af:a0:35:d9:70:69:
         b5:47:5f:d2:f4:78:34:ba:88:d6:91:41:b8:a6:c7:2b:d6:34:
         68:85:cb:06:16:8e:60:f2:cb:08:af:46:d4:7b:d5:b9:fb:76:
         fa:46:18:e8:a1:0e:ea:26:6a:99:eb:f2:dc:ec:6a:e0:e3:bd:
         21:00:d4:3f:6f:71:3d:63:01:8b:fb:f0:49:87:ca:b2:f6:85:
         d0:98:4e:bd:44:21:11:31:09:27:aa:f9:42:f2:0d:fb:bc:d3:
         84:83:b4:e4:81:bd:94:e3:fe:b5:3c:dd:2e:ff:e2:f5:3d:17:
         9a:60:ae:b3:78:6e:0f:db:22:06:90:25:ed:3f:87:53:f2:fc:
         6b:fe:f7:4d:1a:70:0b:4e:b8:5d:4d:47:2f:e0:49:ce:78:28:
         ee:4a:56:cc:74:11:00:49:05:6b:89:dd:78:cc:78:fe:d4:0e:
         ba:0a:cc:8e:9c:20:73:9c:d5:13:60:b9:50:3d:3f:7f:28:38:
         4d:51:1e:72:b5:64:29:78
-----BEGIN CERTIFICATE-----
MIIFvzCCA6egAwIBAgIFFBRYJ2UwDQYJKoZIhvcNAQEFBQAwUjELMAkGA1UEBhMC
RkkxFjAUBgNVBAoTDVNwYWNlaWZ5IEluYy4xEDAOBgNVBAsTB1Jvb3QgQ0ExGTAX
BgNVBAMTEFNwYWNlaWZ5IFJvb3QgQ0EwHhcNMTQxMjE3MDg1OTQxWhcNMjQxMjE0
MDg1OTQxWjBvMQswCQYDVQQGEwJGSTEWMBQGA1UEChMNU3BhY2VpZnkgSW5jLjEs
MCoGA1UECxMjRWRnZSBDbGllbnQgU2VydmVyICAtIDE0MTg4MDY3NjYxNDMxGjAY
BgNVBAMTEWVkZ2Uuc3BhY2VpZnkubmV0MIICIjANBgkqhkiG9w0BAQEFAAOCAg8A
MIICCgKCAgEAzw7/00GtA+Oa53FaVBSMhYDFDnOFPlXm9kC7d0W3qXY27wDq7UAf
4Me94nMPX7uUKBqPhaHeAWX0rthxb7Z4vLjv1W/oLouh3pWCd/5KuhDpVbgWjT1f
Kv7m9a8HrxSpSHTO6s6IHX7Nos7Uj2IGbyxJK96xgo0dlmYAmDGQ93xH1Aqi7TCo
p9mcncaZw3L07tLIgy/7U0RYsin8BR4iI1ihVEtdy6HEGVt6+pglk1nKUR3gDHFP
rC4DuyiMeR0BQtlrv+SR7KFtiYRFO0BXS7MtNWJboKNTykVa+q6moPNr1XOEB9Cb
icK8w3KuljTKqsY+kVgA40WBVo431F7PR4r2oPiWcXA1c70KBBlhz4ZK70pewP8o
sKZBN/rwLsyHnVD/EF7gZ5pHW5T4+VzwpeB5n7FaB8VfmVnAWklkp5W/Oq/+K/xH
yW2jwQp+qxA0JnQSJpqh/CKq2hc3TEp5ilgRLOKcomU6ZvvuQSkcdjpqyX/nfLv9
/zqdCNbWPXFY/dBflZ/XnfAjr/5et+NiozAqxsH4axneA8Mg5Aumadm5BnlQenbP
A5oQJJEVsD+xn2S2WCvNd+v8+5sANPCCkLV1wLbJ+6dzVvUrNHJdTaGDa0XWjrfg
IxxOXeD/Z/n+XkF5Upc8cJ9no6E3C5N+g9WzE/wpDObxIqB0/u5EXq8CAwEAAaN/
MH0wDgYDVR0PAQH/BAQDAgWgMB0GA1UdJQQWMBQGCCsGAQUFBwMBBggrBgEFBQcD
AjAMBgNVHRMBAf8EAjAAMB0GA1UdDgQWBBR8CtLevX4WnMWdl94fUtJBfSiBoDAf
BgNVHSMEGDAWgBTJsVeHB3UUjM3dnHIlkigK7ty2bDANBgkqhkiG9w0BAQUFAAOC
AgEAtQcmZETuJ0OSgtcLL1zyu76/xDWeihrrOydWzGZzZBOgueyipp7OsC6IwLPk
54rgThvavQ+43FZATjGVZrDLYQPIbd73eCcLjC5GgH1rIbfeoiYBP2WXtuqTFu/c
VAXfwOlZmT3GgfbL0wQsbJXaBs3sUU8bwU5JdsRRXDxjhKKO+t0GPLEs6tzrIPex
o/hZstc8MbXvRUPN87tFi2MPYIDBZzLOV0xRc9r207h0UVUU+2ydZMEjiEeDI68c
wANRV0zrpvWStByfVprfBH8hA0NnEELYBUT+qjOZYWBcO9YNYLXuAxMmDV0HxAhz
PBJc6zVeKdS+Gx/wkhPmXTviAwjSU6rjJ8PnQ0uFESNsjzSEEoGn/cAih+anoLG3
HrMUJtslSszK4Rn/OXqNq4vzsMXXmzUlZX2RQ/tnbti/r6A12XBptUdf0vR4NLqI
1pFBuKbHK9Y0aIXLBhaOYPLLCK9G1HvVuft2+kYY6KEO6iZqmevy3Oxq4OO9IQDU
P29xPWMBi/vwSYfKsvaF0JhOvUQhETEJJ6r5QvIN+7zThIO05IG9lOP+tTzdLv/i
9T0XmmCus3huD9siBpAl7T+HU/L8a/73TRpwC064XU1HL+BJzngo7kpWzHQRAEkF
a4ndeMx4/tQOugrMjpwgc5zVE2C5UD0/fyg4TVEecrVkKXg=
-----END CERTIFICATE-----
