Certificate:
    Data:
        Version: 3 (0x2)
        Serial Number:
            14:14:58:27:66
    Signature Algorithm: sha1WithRSAEncryption
        Issuer: C=FI, O=Spaceify Inc., OU=Root CA, CN=Spaceify Root CA
        Validity
            Not Before: Dec 18 09:11:22 2014 GMT
            Not After : Dec 15 09:11:22 2024 GMT
        Subject: C=FI, O=Spaceify Inc., OU=Edge Client Server  - 1418893865790, CN=edge.spaceify.net
        Subject Public Key Info:
            Public Key Algorithm: rsaEncryption
                Public-Key: (4096 bit)
                Modulus:
                    00:b2:ee:f5:06:b3:17:9f:3d:a7:3b:73:60:7d:75:
                    06:d5:c8:5c:e8:05:c6:df:8e:b5:ed:7a:b9:1c:f2:
                    5a:97:08:b2:ad:2b:f7:05:c0:58:bc:54:5c:8f:05:
                    3e:31:37:24:fb:06:8a:59:54:a3:12:06:2d:b6:13:
                    7b:d5:50:9e:b6:35:94:5b:3e:5e:35:61:6b:d4:3b:
                    ea:bd:c2:72:a2:87:a1:28:d7:92:00:e8:de:23:ae:
                    e8:d9:8f:73:3b:8b:6d:43:f4:ab:22:ae:b6:36:5f:
                    e6:f4:a0:52:6d:a3:1d:ac:46:e7:61:35:1d:3d:11:
                    00:49:04:0d:c4:ae:01:3c:09:6a:13:7b:6f:8f:35:
                    cb:de:dc:dd:70:89:3d:0a:cc:b6:a0:3b:be:2a:bc:
                    42:e9:a2:c8:20:6d:97:f1:02:c5:b2:5a:59:45:22:
                    97:89:f4:26:1e:ab:8f:d4:b7:f8:af:88:41:7d:6f:
                    57:7e:ef:cc:fb:ae:1b:8f:0e:11:a3:7f:5c:04:18:
                    41:72:63:15:72:d6:6c:02:a7:d6:89:36:22:09:80:
                    05:65:97:0a:22:dc:5d:0b:6d:1a:d4:ba:05:c4:93:
                    e0:c8:c9:a7:fa:23:89:ef:ee:82:42:2a:f1:0b:e1:
                    a0:2d:bf:1d:1c:35:5c:4c:6c:e5:c0:73:da:1d:d1:
                    97:00:76:0b:95:90:1c:6e:2e:d7:77:48:cf:a3:40:
                    9d:51:eb:9e:4d:3f:ea:87:73:71:b6:79:04:70:3d:
                    f3:76:d4:ee:1b:66:79:a8:bc:52:45:91:39:c3:f2:
                    8b:8f:20:e9:e2:e7:de:55:99:61:98:f7:ff:a3:de:
                    32:84:62:d0:22:a4:93:15:30:4a:1e:86:15:dd:9c:
                    26:b7:de:98:8d:7f:5f:5a:ae:44:69:cc:09:f5:0b:
                    e1:e7:d3:1c:ee:df:dd:ce:22:eb:91:c9:5f:66:c7:
                    8e:75:6c:2e:95:65:67:fe:24:88:bc:da:27:6a:8a:
                    75:16:27:88:62:12:f2:47:40:e0:4d:d6:2c:69:23:
                    db:71:b5:41:22:e5:f4:a1:cf:17:3d:eb:72:3f:37:
                    e5:20:bf:6e:2e:5a:e3:2b:dc:6e:67:5e:86:01:37:
                    bb:bc:52:47:2c:d4:9b:a5:11:80:8b:36:f3:32:25:
                    14:d7:d1:05:60:c6:f6:14:34:65:11:1a:76:6f:54:
                    1c:ed:5e:b7:ce:e8:54:95:40:ee:eb:a4:50:cd:62:
                    d6:92:53:df:4b:c7:5a:ca:d6:34:42:34:84:f4:e8:
                    3b:9f:57:c4:c9:12:be:0c:78:ba:e6:31:1e:35:9b:
                    d3:9c:df:54:e8:77:f4:36:f7:8a:d0:e8:8b:ff:0f:
                    f1:34:bf
                Exponent: 65537 (0x10001)
        X509v3 extensions:
            X509v3 Key Usage: critical
                Digital Signature, Key Encipherment
            X509v3 Extended Key Usage: 
                TLS Web Server Authentication, TLS Web Client Authentication
            X509v3 Basic Constraints: critical
                CA:FALSE
            X509v3 Subject Key Identifier: 
                C0:FB:6A:EE:52:3C:21:8C:85:08:89:72:0F:E7:A8:4E:3F:5D:ED:28
            X509v3 Authority Key Identifier: 
                keyid:C9:B1:57:87:07:75:14:8C:CD:DD:9C:72:25:92:28:0A:EE:DC:B6:6C

    Signature Algorithm: sha1WithRSAEncryption
         26:4d:84:61:96:92:ac:61:0f:b0:4f:8f:9b:5f:07:d1:1c:ad:
         f5:c7:59:0f:72:4c:a2:45:07:e4:f5:ff:c1:22:32:cb:95:45:
         55:55:75:e0:c9:b5:df:94:a0:16:41:3b:fe:6b:61:a5:3f:e0:
         6e:fe:d0:81:99:f4:2b:bc:1e:b6:9e:e3:74:e4:7e:a5:5d:bf:
         59:45:0a:bc:e3:ed:b4:e7:f8:66:08:c4:ae:15:9d:a3:7c:65:
         e3:1b:a1:17:29:ce:c9:e0:b0:ff:29:c1:3b:d1:16:0f:44:c1:
         de:c0:64:4e:02:bd:d2:0c:3c:7c:b1:14:4f:6d:41:c6:11:43:
         05:6a:6f:0d:89:72:2b:04:b8:b2:4c:a7:18:af:a9:43:cd:5f:
         13:32:cb:13:d4:9f:f7:96:2f:d9:fd:a8:92:00:31:41:42:d9:
         24:e0:a7:01:32:bf:09:30:73:59:21:00:a1:0a:24:38:b1:95:
         af:8d:ce:5e:0a:a5:01:89:7b:cb:49:dd:68:20:63:97:62:7f:
         c5:c3:f0:0d:fa:0a:f7:f1:c7:ab:59:11:f9:20:cf:02:b7:c6:
         fc:a3:db:ab:7d:a5:3a:78:27:2b:fb:27:67:f8:47:07:9c:d2:
         12:76:69:5d:c4:54:b6:47:f2:b6:6e:24:a9:4c:e5:48:cc:28:
         f6:3f:7e:e9:47:5f:05:b7:15:c5:4c:11:1f:ad:48:20:d0:04:
         5e:1d:9b:22:60:bc:d5:f1:f0:55:4f:8a:b7:93:7b:4c:21:5c:
         37:34:96:18:73:62:8a:59:ac:f1:fe:60:40:eb:ac:1e:db:26:
         74:be:e9:28:3a:39:57:74:f4:f6:1b:41:5e:38:d8:7b:9b:5e:
         e0:2c:d6:ee:32:7e:c2:c7:28:f0:28:59:6b:86:0f:1b:ef:d6:
         69:d3:e2:2a:0e:a6:22:2d:ff:37:98:bc:9f:1d:ff:69:2e:a9:
         80:cd:5b:62:5c:15:82:65:7e:1f:0d:fa:ad:79:9c:5e:6e:8f:
         6e:43:32:41:fb:6d:12:92:f6:19:a1:41:d5:3d:60:8b:55:5c:
         70:15:ed:6e:6e:95:52:6c:e1:ba:b3:e5:63:b8:a8:84:54:95:
         87:f0:d3:3e:e6:04:9a:7e:4f:b8:d4:cd:0e:7d:73:c6:3c:98:
         42:47:dd:66:de:79:7e:d6:4b:9a:cf:4c:48:06:cd:25:1f:86:
         c2:aa:6a:3f:ae:db:01:8e:32:ea:40:40:08:59:1e:a9:5f:cd:
         4d:6b:f5:be:63:87:63:be:89:87:cd:5a:c4:a7:36:c5:8c:b6:
         25:b0:c8:54:9c:28:2a:a0:45:c1:f5:d8:4b:33:91:07:3b:fd:
         dd:19:03:f9:82:da:94:c5
-----BEGIN CERTIFICATE-----
MIIFvzCCA6egAwIBAgIFFBRYJ2YwDQYJKoZIhvcNAQEFBQAwUjELMAkGA1UEBhMC
RkkxFjAUBgNVBAoTDVNwYWNlaWZ5IEluYy4xEDAOBgNVBAsTB1Jvb3QgQ0ExGTAX
BgNVBAMTEFNwYWNlaWZ5IFJvb3QgQ0EwHhcNMTQxMjE4MDkxMTIyWhcNMjQxMjE1
MDkxMTIyWjBvMQswCQYDVQQGEwJGSTEWMBQGA1UEChMNU3BhY2VpZnkgSW5jLjEs
MCoGA1UECxMjRWRnZSBDbGllbnQgU2VydmVyICAtIDE0MTg4OTM4NjU3OTAxGjAY
BgNVBAMTEWVkZ2Uuc3BhY2VpZnkubmV0MIICIjANBgkqhkiG9w0BAQEFAAOCAg8A
MIICCgKCAgEAsu71BrMXnz2nO3NgfXUG1chc6AXG34617Xq5HPJalwiyrSv3BcBY
vFRcjwU+MTck+waKWVSjEgYtthN71VCetjWUWz5eNWFr1DvqvcJyooehKNeSAOje
I67o2Y9zO4ttQ/SrIq62Nl/m9KBSbaMdrEbnYTUdPREASQQNxK4BPAlqE3tvjzXL
3tzdcIk9Csy2oDu+KrxC6aLIIG2X8QLFslpZRSKXifQmHquP1Lf4r4hBfW9Xfu/M
+64bjw4Ro39cBBhBcmMVctZsAqfWiTYiCYAFZZcKItxdC20a1LoFxJPgyMmn+iOJ
7+6CQirxC+GgLb8dHDVcTGzlwHPaHdGXAHYLlZAcbi7Xd0jPo0CdUeueTT/qh3Nx
tnkEcD3zdtTuG2Z5qLxSRZE5w/KLjyDp4ufeVZlhmPf/o94yhGLQIqSTFTBKHoYV
3Zwmt96YjX9fWq5EacwJ9Qvh59Mc7t/dziLrkclfZseOdWwulWVn/iSIvNonaop1
FieIYhLyR0DgTdYsaSPbcbVBIuX0oc8XPetyPzflIL9uLlrjK9xuZ16GATe7vFJH
LNSbpRGAizbzMiUU19EFYMb2FDRlERp2b1Qc7V63zuhUlUDu66RQzWLWklPfS8da
ytY0QjSE9Og7n1fEyRK+DHi65jEeNZvTnN9U6Hf0NveK0OiL/w/xNL8CAwEAAaN/
MH0wDgYDVR0PAQH/BAQDAgWgMB0GA1UdJQQWMBQGCCsGAQUFBwMBBggrBgEFBQcD
AjAMBgNVHRMBAf8EAjAAMB0GA1UdDgQWBBTA+2ruUjwhjIUIiXIP56hOP13tKDAf
BgNVHSMEGDAWgBTJsVeHB3UUjM3dnHIlkigK7ty2bDANBgkqhkiG9w0BAQUFAAOC
AgEAJk2EYZaSrGEPsE+Pm18H0Ryt9cdZD3JMokUH5PX/wSIyy5VFVVV14Mm135Sg
FkE7/mthpT/gbv7QgZn0K7wetp7jdOR+pV2/WUUKvOPttOf4ZgjErhWdo3xl4xuh
FynOyeCw/ynBO9EWD0TB3sBkTgK90gw8fLEUT21BxhFDBWpvDYlyKwS4skynGK+p
Q81fEzLLE9Sf95Yv2f2okgAxQULZJOCnATK/CTBzWSEAoQokOLGVr43OXgqlAYl7
y0ndaCBjl2J/xcPwDfoK9/HHq1kR+SDPArfG/KPbq32lOngnK/snZ/hHB5zSEnZp
XcRUtkfytm4kqUzlSMwo9j9+6UdfBbcVxUwRH61IINAEXh2bImC81fHwVU+Kt5N7
TCFcNzSWGHNiilms8f5gQOusHtsmdL7pKDo5V3T09htBXjjYe5te4CzW7jJ+wsco
8ChZa4YPG+/WadPiKg6mIi3/N5i8nx3/aS6pgM1bYlwVgmV+Hw36rXmcXm6PbkMy
QfttEpL2GaFB1T1gi1VccBXtbm6VUmzhurPlY7iohFSVh/DTPuYEmn5PuNTNDn1z
xjyYQkfdZt55ftZLms9MSAbNJR+GwqpqP67bAY4y6kBACFkeqV/NTWv1vmOHY76J
h81axKc2xYy2JbDIVJwoKqBFwfXYSzORBzv93RkD+YLalMU=
-----END CERTIFICATE-----
