Certificate:
    Data:
        Version: 3 (0x2)
        Serial Number: 85991823143 (0x1405831727)
    Signature Algorithm: sha1WithRSAEncryption
        Issuer: C=FI, O=Spaceify Inc., OU=Root CA, CN=Spaceify Root CA
        Validity
            Not Before: Jul 20 04:48:50 2014 GMT
            Not After : Jul 17 04:48:50 2024 GMT
        Subject: C=FI, O=Spaceify Inc., OU=Edge Server, CN=edge.spaceify.net
        Subject Public Key Info:
            Public Key Algorithm: rsaEncryption
                Public-Key: (4096 bit)
                Modulus:
                    00:c6:67:bb:ab:af:bb:2f:7f:b8:ab:a1:65:32:22:
                    c5:2e:5a:65:3b:f0:9a:68:e2:5b:8d:88:6b:62:20:
                    77:28:54:dd:a6:c5:1a:46:fe:89:51:43:d9:e8:c0:
                    c8:33:f9:83:b0:fc:b4:39:75:18:86:e1:27:ef:b8:
                    4a:4d:d0:d1:6f:5b:ff:40:ed:0b:7d:1e:d6:b3:66:
                    26:6c:1b:24:b1:07:85:b1:fc:3a:17:0a:8c:74:95:
                    c2:44:92:44:b7:b7:7a:52:71:8f:e4:be:59:af:e2:
                    b5:22:95:06:87:e8:22:e6:22:54:4c:a6:40:d9:a9:
                    80:0d:e5:74:16:8a:f3:8d:0f:f0:44:d1:cc:6b:fc:
                    8d:60:3f:f8:5a:86:e5:f6:23:5e:d5:0e:2a:50:17:
                    c0:08:db:02:14:8e:0d:12:44:69:7d:19:e1:fe:dd:
                    d0:68:cf:df:04:89:8c:3a:2f:ab:f9:0b:a5:02:91:
                    97:90:f7:91:2d:68:f0:16:9f:8c:43:33:96:fe:c3:
                    79:ac:90:c9:96:a8:e4:b6:da:26:f6:68:15:d7:c1:
                    27:2b:e6:b5:d9:be:c2:29:4b:0f:65:b1:e2:76:34:
                    98:fa:69:63:d1:64:53:4f:75:7b:3f:7c:f0:4a:83:
                    06:ec:c9:ca:13:f4:f4:d1:57:69:47:ac:e9:12:aa:
                    c1:cd:91:df:17:98:89:6f:20:bd:aa:2c:a4:0e:a2:
                    e8:8c:38:c5:28:b3:ac:42:9e:29:7d:f8:49:ff:2b:
                    7e:5d:c3:64:50:b0:62:ba:96:7f:48:45:a5:8d:c5:
                    b4:37:d2:19:af:a7:e6:b5:10:4c:14:44:c7:36:de:
                    8d:2f:ab:e0:d0:1e:a2:a7:3d:f1:f6:20:94:98:7f:
                    0b:d3:02:00:63:50:6d:a9:9b:ee:ce:6a:6b:49:13:
                    55:54:18:e0:88:50:16:41:fb:50:c7:8d:25:50:b7:
                    0d:4f:28:40:f0:b3:60:b9:60:0c:d7:12:f0:7d:33:
                    66:9b:3c:d9:a1:83:15:40:12:63:fb:14:93:7b:4c:
                    24:fd:12:49:ea:23:c6:5d:df:9b:d8:db:73:47:ab:
                    ad:c8:24:01:5c:22:09:3e:93:79:ef:96:07:38:46:
                    9b:59:48:14:a0:5a:7c:82:81:f6:d3:56:2f:03:45:
                    7f:7e:68:0b:2b:c3:72:29:89:a0:fe:f4:a2:eb:22:
                    af:2a:98:d0:c1:cf:8f:43:fd:93:07:65:c4:c0:63:
                    da:d4:0b:dd:ce:b9:54:53:19:59:20:82:bd:a7:2e:
                    e3:2b:d6:98:e1:6a:ba:c8:43:07:29:c7:a0:5b:d7:
                    cf:22:21:c6:0a:87:32:ad:b0:77:d5:e6:69:42:91:
                    99:ed:31
                Exponent: 65537 (0x10001)
        X509v3 extensions:
            X509v3 Key Usage: critical
                Digital Signature, Key Encipherment
            X509v3 Extended Key Usage: 
                TLS Web Server Authentication, TLS Web Client Authentication
            X509v3 Basic Constraints: critical
                CA:FALSE
            X509v3 Subject Key Identifier: 
                F2:AB:C2:F5:A1:97:46:18:7E:99:75:BF:C0:8E:7F:69:D3:77:6B:58
            X509v3 Authority Key Identifier: 
                keyid:8A:BD:F9:59:65:85:5F:8D:20:36:19:E5:79:17:39:80:7B:2C:CD:9F

    Signature Algorithm: sha1WithRSAEncryption
         88:de:c9:ee:6f:f3:dc:11:e3:c2:92:31:14:36:2b:d2:80:6c:
         3c:fb:7e:48:0f:e6:8b:09:95:e6:f7:c2:e9:36:51:20:fd:65:
         d0:2b:b0:0c:55:38:ad:93:a0:5f:d3:5b:27:1c:3c:bb:6d:82:
         dc:2f:4c:01:e3:7f:18:86:21:ac:08:17:0c:e0:7d:58:3c:d4:
         c0:f7:b0:15:c0:8b:59:e7:82:81:11:26:b5:a9:f5:5f:86:3d:
         2f:fe:32:56:20:e9:25:56:f0:b9:ab:4c:d7:8e:41:a2:8f:16:
         65:88:d9:03:8c:1e:c8:b5:49:f4:0d:35:c5:5a:80:62:2b:9d:
         ba:6a:25:a8:c1:e6:b2:3a:c2:90:e2:26:50:60:eb:07:7b:52:
         80:41:84:0d:7d:ab:f5:60:7e:f5:86:ce:17:d2:bf:76:a8:6c:
         fb:42:67:81:3f:57:0a:49:90:0c:04:dd:c1:2c:1d:15:5f:68:
         77:16:e3:08:f6:73:13:62:5c:d3:03:64:be:d4:af:7b:7f:f5:
         9d:f0:8e:4f:1b:4f:0b:04:13:42:c9:1e:8f:c3:de:d4:b5:57:
         2c:51:9f:ec:f6:f3:b2:ad:c3:25:a8:01:ea:12:f5:ae:1c:50:
         8c:9e:d7:0d:d6:19:36:4d:4e:8a:1a:06:99:ab:64:94:e0:af:
         13:75:32:ee:f3:c7:36:f4:50:9d:3f:b2:0d:fa:70:ff:eb:8e:
         dc:e4:03:ab:6d:e0:98:37:27:a8:5b:28:01:61:11:a9:d2:0c:
         7b:00:5a:38:d0:f5:ca:d3:4c:d5:cb:88:df:49:73:0b:f8:78:
         79:2f:3a:f9:7d:98:05:91:44:2c:9d:b3:0e:13:88:3b:7a:e2:
         80:15:a8:8f:70:48:be:4f:39:b6:94:f8:2e:01:63:88:c4:bc:
         2c:22:94:94:a1:c2:0a:56:57:3d:0a:ea:67:ec:72:04:81:b8:
         90:e1:c8:ba:4d:60:bb:91:93:5c:8e:9c:ec:94:17:81:c2:c5:
         b2:5d:18:0a:eb:b4:fe:01:b6:ea:1c:c8:59:b0:30:25:09:5d:
         27:d5:82:0b:8b:4f:ff:c5:26:66:ec:c3:8a:7a:26:0a:85:11:
         05:e2:26:db:47:65:65:c1:3e:7e:3b:7d:7d:9f:34:09:9c:ae:
         30:1f:0b:cc:9f:36:77:ef:e9:46:e6:88:0b:f0:8b:61:8e:61:
         14:9e:83:ee:8d:3a:ec:6b:4d:ae:ca:92:15:5d:9c:1d:0a:e0:
         42:b3:60:7c:4a:33:75:5d:cf:cf:4f:24:0f:8c:dd:5d:18:f0:
         1a:67:be:a4:78:65:8d:17:c3:00:10:d0:ed:fa:76:ce:c3:b2:
         d7:98:8c:49:48:e8:86:4b
-----BEGIN CERTIFICATE-----
MIIFpzCCA4+gAwIBAgIFFAWDFycwDQYJKoZIhvcNAQEFBQAwUjELMAkGA1UEBhMC
RkkxFjAUBgNVBAoTDVNwYWNlaWZ5IEluYy4xEDAOBgNVBAsTB1Jvb3QgQ0ExGTAX
BgNVBAMTEFNwYWNlaWZ5IFJvb3QgQ0EwHhcNMTQwNzIwMDQ0ODUwWhcNMjQwNzE3
MDQ0ODUwWjBXMQswCQYDVQQGEwJGSTEWMBQGA1UEChMNU3BhY2VpZnkgSW5jLjEU
MBIGA1UECxMLRWRnZSBTZXJ2ZXIxGjAYBgNVBAMTEWVkZ2Uuc3BhY2VpZnkubmV0
MIICIjANBgkqhkiG9w0BAQEFAAOCAg8AMIICCgKCAgEAxme7q6+7L3+4q6FlMiLF
LlplO/CaaOJbjYhrYiB3KFTdpsUaRv6JUUPZ6MDIM/mDsPy0OXUYhuEn77hKTdDR
b1v/QO0LfR7Ws2YmbBsksQeFsfw6FwqMdJXCRJJEt7d6UnGP5L5Zr+K1IpUGh+gi
5iJUTKZA2amADeV0ForzjQ/wRNHMa/yNYD/4Wobl9iNe1Q4qUBfACNsCFI4NEkRp
fRnh/t3QaM/fBImMOi+r+QulApGXkPeRLWjwFp+MQzOW/sN5rJDJlqjkttom9mgV
18EnK+a12b7CKUsPZbHidjSY+mlj0WRTT3V7P3zwSoMG7MnKE/T00VdpR6zpEqrB
zZHfF5iJbyC9qiykDqLojDjFKLOsQp4pffhJ/yt+XcNkULBiupZ/SEWljcW0N9IZ
r6fmtRBMFETHNt6NL6vg0B6ipz3x9iCUmH8L0wIAY1BtqZvuzmprSRNVVBjgiFAW
QftQx40lULcNTyhA8LNguWAM1xLwfTNmmzzZoYMVQBJj+xSTe0wk/RJJ6iPGXd+b
2NtzR6utyCQBXCIJPpN575YHOEabWUgUoFp8goH201YvA0V/fmgLK8NyKYmg/vSi
6yKvKpjQwc+PQ/2TB2XEwGPa1AvdzrlUUxlZIIK9py7jK9aY4Wq6yEMHKcegW9fP
IiHGCocyrbB31eZpQpGZ7TECAwEAAaN/MH0wDgYDVR0PAQH/BAQDAgWgMB0GA1Ud
JQQWMBQGCCsGAQUFBwMBBggrBgEFBQcDAjAMBgNVHRMBAf8EAjAAMB0GA1UdDgQW
BBTyq8L1oZdGGH6Zdb/Ajn9p03drWDAfBgNVHSMEGDAWgBSKvflZZYVfjSA2GeV5
FzmAeyzNnzANBgkqhkiG9w0BAQUFAAOCAgEAiN7J7m/z3BHjwpIxFDYr0oBsPPt+
SA/miwmV5vfC6TZRIP1l0CuwDFU4rZOgX9NbJxw8u22C3C9MAeN/GIYhrAgXDOB9
WDzUwPewFcCLWeeCgREmtan1X4Y9L/4yViDpJVbwuatM145Boo8WZYjZA4weyLVJ
9A01xVqAYiudumolqMHmsjrCkOImUGDrB3tSgEGEDX2r9WB+9YbOF9K/dqhs+0Jn
gT9XCkmQDATdwSwdFV9odxbjCPZzE2Jc0wNkvtSve3/1nfCOTxtPCwQTQskej8Pe
1LVXLFGf7Pbzsq3DJagB6hL1rhxQjJ7XDdYZNk1OihoGmatklOCvE3Uy7vPHNvRQ
nT+yDfpw/+uO3OQDq23gmDcnqFsoAWERqdIMewBaOND1ytNM1cuI30lzC/h4eS86
+X2YBZFELJ2zDhOIO3rigBWoj3BIvk85tpT4LgFjiMS8LCKUlKHCClZXPQrqZ+xy
BIG4kOHIuk1gu5GTXI6c7JQXgcLFsl0YCuu0/gG26hzIWbAwJQldJ9WCC4tP/8Um
ZuzDinomCoURBeIm20dlZcE+fjt9fZ80CZyuMB8LzJ82d+/pRuaIC/CLYY5hFJ6D
7o067GtNrsqSFV2cHQrgQrNgfEozdV3Pz08kD4zdXRjwGme+pHhljRfDABDQ7fp2
zsOy15iMSUjohks=
-----END CERTIFICATE-----
