Certificate:
    Data:
        Version: 3 (0x2)
        Serial Number:
            13:94:43:84:0c
    Signature Algorithm: sha1WithRSAEncryption
        Issuer: C=FI, O=Spaceify Inc., OU=Root CA, CN=Spaceify Root CA
        Validity
            Not Before: Jul 11 07:25:45 2014 GMT
            Not After : Jul  8 07:25:45 2024 GMT
        Subject: C=FI, O=Spaceify Inc., OU=Edge Client Server  - 1405063525263, CN=edge.spaceify.net
        Subject Public Key Info:
            Public Key Algorithm: rsaEncryption
                Public-Key: (4096 bit)
                Modulus:
                    00:bf:7e:02:5f:2c:12:a0:3c:81:6a:4f:f0:4a:83:
                    22:3a:4b:3c:f4:7f:3a:4c:6f:c1:2c:24:22:41:9e:
                    a9:b4:bd:ab:34:bd:b1:70:ea:a2:17:4f:f9:30:b0:
                    90:9e:ca:3b:48:b3:39:f5:6e:16:93:74:78:d9:d5:
                    da:bc:d2:fe:c1:77:f7:56:2e:7f:4a:16:e8:bd:82:
                    34:60:50:25:86:df:09:41:a9:24:9f:c3:6a:3f:89:
                    cd:57:52:a8:75:3a:43:89:66:97:2d:61:ff:49:be:
                    48:a7:a1:42:d3:97:58:0f:66:31:04:0e:91:93:d0:
                    31:fb:44:fb:77:e9:2d:19:6e:32:49:85:68:f3:c3:
                    18:94:63:39:77:67:65:4a:f1:dc:27:ab:e7:60:38:
                    56:46:3b:b2:0d:a6:03:98:d0:33:31:9e:62:fb:54:
                    28:f8:c0:8b:01:1f:7f:7b:f9:1e:83:d9:e5:35:6a:
                    4b:cc:7d:c4:90:b7:95:de:84:f6:3a:45:47:2f:ef:
                    89:aa:7d:87:7e:d6:4a:2d:eb:4f:7d:c7:f9:27:4a:
                    0c:53:d5:64:e3:de:27:7b:0f:71:85:ae:9e:49:e1:
                    c8:16:f9:d0:2b:26:d3:13:8d:b4:ec:04:57:06:ea:
                    e8:e0:4e:3a:ef:4f:c1:8c:c3:a2:b3:91:56:e1:a3:
                    88:02:bc:03:a1:d6:15:19:3f:92:3a:b3:a1:89:67:
                    75:06:6f:37:6a:3d:c1:72:c2:4c:77:f1:b2:0e:b5:
                    57:36:19:5b:b3:07:1e:46:b0:3c:e1:63:67:ca:7d:
                    45:8a:c0:ff:2d:6a:f8:9a:00:4b:99:2d:d3:b8:94:
                    58:66:9a:e0:44:d9:14:bd:4b:2c:8f:bc:6f:ae:f6:
                    8e:31:03:d9:e9:c4:b1:13:aa:12:8a:a0:e1:4f:39:
                    1b:54:10:ea:26:0f:cc:ad:84:3c:3e:15:af:5c:63:
                    c0:47:3a:bc:f0:f6:70:9b:b3:b8:91:8d:a0:5d:df:
                    ab:8d:90:fc:2b:4b:d3:50:ba:99:8e:04:95:6f:fd:
                    9e:6f:40:b1:01:ac:c8:79:a0:8d:72:2d:b3:2f:55:
                    79:09:f0:3a:40:20:ab:02:05:a5:ec:3c:b7:06:51:
                    d2:8c:48:87:c3:c7:09:9e:f3:db:4d:59:ea:18:c0:
                    0e:0a:bc:4f:65:0a:6a:d2:ca:14:d2:a8:86:8a:11:
                    98:11:7c:e0:2e:8b:21:c0:e5:7d:36:71:dd:2c:32:
                    f9:36:37:fa:8f:8a:d7:e2:59:c9:11:af:f7:4f:33:
                    e1:c3:45:7a:86:ae:32:59:2c:17:df:9c:16:0d:15:
                    0b:1c:9d:b4:07:fd:35:bd:94:69:b3:dc:44:5d:99:
                    f6:55:cb
                Exponent: 65537 (0x10001)
        X509v3 extensions:
            X509v3 Key Usage: critical
                Digital Signature, Key Encipherment
            X509v3 Extended Key Usage: 
                TLS Web Server Authentication, TLS Web Client Authentication
            X509v3 Basic Constraints: critical
                CA:FALSE
            X509v3 Subject Key Identifier: 
                9A:5F:C5:48:C9:82:71:93:56:93:D6:C5:22:C3:19:12:F4:48:4E:A8
            X509v3 Authority Key Identifier: 
                keyid:8A:5B:9F:22:30:35:5B:80:D7:48:70:54:D6:0A:C7:83:8D:FC:BD:EF

    Signature Algorithm: sha1WithRSAEncryption
         40:13:8b:44:98:9a:8f:66:27:e2:f6:0f:d8:af:b6:e2:14:18:
         21:6b:c3:bd:61:2b:99:60:62:b9:b9:c8:88:9e:c4:db:26:bb:
         48:f1:79:71:72:d5:4c:0b:62:6b:d4:23:1f:22:d8:1a:e8:14:
         13:72:8d:9a:12:27:c1:8a:e9:3e:9e:3b:aa:c0:73:38:7e:c0:
         52:a1:6a:37:f4:d2:37:df:34:ca:0e:5d:3c:c2:91:06:73:79:
         3a:97:4b:ea:75:8a:7e:b2:bd:e5:31:69:cc:e3:14:83:98:d4:
         7f:ef:0b:cd:78:20:34:a3:83:f6:e9:e6:85:ae:9f:67:2e:c2:
         be:2c:47:c7:f3:f1:c9:4f:35:eb:34:c5:0c:b8:87:69:bd:c9:
         02:5d:c1:f4:5e:2e:ec:14:85:6c:25:b1:01:cb:9d:74:6e:68:
         14:e1:2d:8e:1d:42:11:ae:c1:04:14:c8:c8:fd:2e:1b:3b:42:
         f0:79:72:ff:49:33:4e:0a:1a:bf:36:5e:c7:9c:dd:be:c8:4a:
         74:56:bf:7f:06:cb:ba:20:1a:29:4b:c7:6e:fc:66:6b:b1:eb:
         73:36:73:ea:73:e3:b0:1b:99:90:70:23:d9:ef:c1:11:32:c2:
         c9:e1:7a:e2:e3:d9:c8:ce:55:c4:13:ff:97:20:c4:79:b1:f7:
         ce:12:58:6f:a4:3a:6c:9a:4e:e9:d8:34:ed:51:40:84:06:c6:
         28:93:e0:31:27:c4:e2:f2:47:85:75:a8:ed:a5:c4:ef:76:89:
         d0:82:05:f2:8e:c8:6b:a8:72:b3:72:c3:c5:ec:5b:19:bb:69:
         fd:cd:6e:18:c5:c1:c9:97:fd:01:01:1d:2f:c3:cb:94:f8:ea:
         05:ce:de:4f:c2:6f:dc:a0:00:49:d0:aa:6a:ed:dc:d6:24:50:
         87:7b:54:ce:12:61:e9:88:2b:14:67:f9:4f:f9:c9:da:01:dc:
         62:a9:7a:f3:d0:48:55:1f:d8:90:1f:be:cc:5d:8f:cf:81:30:
         ad:ea:e0:af:d3:e2:13:51:16:1b:a7:37:d3:ff:a8:47:80:18:
         5b:78:e1:de:84:a3:6f:5e:f5:25:d2:66:6a:e9:98:92:30:49:
         ec:a7:05:cc:af:a7:bb:f3:3c:f3:dc:4e:b5:40:bd:43:a8:d3:
         b2:0c:15:8d:44:93:ba:22:22:b8:71:a0:85:de:5a:14:dc:ef:
         6c:a2:60:a2:fc:25:60:0e:c5:8c:b0:65:f7:2f:d4:35:b7:3e:
         5a:6b:ce:c1:c4:a7:b3:ef:00:1d:44:32:cf:f1:ff:d4:8a:fb:
         11:2b:fb:fa:de:03:85:50:cd:b7:23:f9:cd:ac:fe:c9:b5:81:
         7d:39:44:bf:a8:08:4d:b6
-----BEGIN CERTIFICATE-----
MIIFvzCCA6egAwIBAgIFE5RDhAwwDQYJKoZIhvcNAQEFBQAwUjELMAkGA1UEBhMC
RkkxFjAUBgNVBAoTDVNwYWNlaWZ5IEluYy4xEDAOBgNVBAsTB1Jvb3QgQ0ExGTAX
BgNVBAMTEFNwYWNlaWZ5IFJvb3QgQ0EwHhcNMTQwNzExMDcyNTQ1WhcNMjQwNzA4
MDcyNTQ1WjBvMQswCQYDVQQGEwJGSTEWMBQGA1UEChMNU3BhY2VpZnkgSW5jLjEs
MCoGA1UECxMjRWRnZSBDbGllbnQgU2VydmVyICAtIDE0MDUwNjM1MjUyNjMxGjAY
BgNVBAMTEWVkZ2Uuc3BhY2VpZnkubmV0MIICIjANBgkqhkiG9w0BAQEFAAOCAg8A
MIICCgKCAgEAv34CXywSoDyBak/wSoMiOks89H86TG/BLCQiQZ6ptL2rNL2xcOqi
F0/5MLCQnso7SLM59W4Wk3R42dXavNL+wXf3Vi5/ShbovYI0YFAlht8JQakkn8Nq
P4nNV1KodTpDiWaXLWH/Sb5Ip6FC05dYD2YxBA6Rk9Ax+0T7d+ktGW4ySYVo88MY
lGM5d2dlSvHcJ6vnYDhWRjuyDaYDmNAzMZ5i+1Qo+MCLAR9/e/keg9nlNWpLzH3E
kLeV3oT2OkVHL++Jqn2HftZKLetPfcf5J0oMU9Vk494new9xha6eSeHIFvnQKybT
E4207ARXBuro4E4670/BjMOis5FW4aOIArwDodYVGT+SOrOhiWd1Bm83aj3BcsJM
d/GyDrVXNhlbswceRrA84WNnyn1FisD/LWr4mgBLmS3TuJRYZprgRNkUvUssj7xv
rvaOMQPZ6cSxE6oSiqDhTzkbVBDqJg/MrYQ8PhWvXGPARzq88PZwm7O4kY2gXd+r
jZD8K0vTULqZjgSVb/2eb0CxAazIeaCNci2zL1V5CfA6QCCrAgWl7Dy3BlHSjEiH
w8cJnvPbTVnqGMAOCrxPZQpq0soU0qiGihGYEXzgLoshwOV9NnHdLDL5Njf6j4rX
4lnJEa/3TzPhw0V6hq4yWSwX35wWDRULHJ20B/01vZRps9xEXZn2VcsCAwEAAaN/
MH0wDgYDVR0PAQH/BAQDAgWgMB0GA1UdJQQWMBQGCCsGAQUFBwMBBggrBgEFBQcD
AjAMBgNVHRMBAf8EAjAAMB0GA1UdDgQWBBSaX8VIyYJxk1aT1sUiwxkS9EhOqDAf
BgNVHSMEGDAWgBSKW58iMDVbgNdIcFTWCseDjfy97zANBgkqhkiG9w0BAQUFAAOC
AgEAQBOLRJiaj2Yn4vYP2K+24hQYIWvDvWErmWBiubnIiJ7E2ya7SPF5cXLVTAti
a9QjHyLYGugUE3KNmhInwYrpPp47qsBzOH7AUqFqN/TSN980yg5dPMKRBnN5OpdL
6nWKfrK95TFpzOMUg5jUf+8LzXggNKOD9unmha6fZy7CvixHx/PxyU816zTFDLiH
ab3JAl3B9F4u7BSFbCWxAcuddG5oFOEtjh1CEa7BBBTIyP0uGztC8Hly/0kzTgoa
vzZex5zdvshKdFa/fwbLuiAaKUvHbvxma7HrczZz6nPjsBuZkHAj2e/BETLCyeF6
4uPZyM5VxBP/lyDEebH3zhJYb6Q6bJpO6dg07VFAhAbGKJPgMSfE4vJHhXWo7aXE
73aJ0IIF8o7Ia6hys3LDxexbGbtp/c1uGMXByZf9AQEdL8PLlPjqBc7eT8Jv3KAA
SdCqau3c1iRQh3tUzhJh6YgrFGf5T/nJ2gHcYql689BIVR/YkB++zF2Pz4Ewrerg
r9PiE1EWG6c30/+oR4AYW3jh3oSjb171JdJmaumYkjBJ7KcFzK+nu/M889xOtUC9
Q6jTsgwVjUSTuiIiuHGghd5aFNzvbKJgovwlYA7FjLBl9y/UNbc+WmvOwcSns+8A
HUQyz/H/1Ir7ESv7+t4DhVDNtyP5zaz+ybWBfTlEv6gITbY=
-----END CERTIFICATE-----
