Certificate:
    Data:
        Version: 3 (0x2)
        Serial Number:
            13:90:97:42:48
    Signature Algorithm: sha1WithRSAEncryption
        Issuer: C=FI, O=Spaceify Inc., OU=Root CA, CN=Spaceify Root CA
        Validity
            Not Before: May  5 10:00:03 2014 GMT
            Not After : May  2 10:00:03 2024 GMT
        Subject: C=FI, O=Spaceify Inc., OU=Edge Client Server  - 1399283965602, CN=edge.spaceify.net
        Subject Public Key Info:
            Public Key Algorithm: rsaEncryption
                Public-Key: (4096 bit)
                Modulus:
                    00:b5:a9:87:47:3b:fb:cc:9c:89:f0:3f:d3:57:8a:
                    d3:a3:16:13:10:3f:29:e9:3c:ac:d1:1a:97:ec:b1:
                    2a:19:c0:b0:01:5b:c5:c6:ea:7c:5c:13:11:97:7f:
                    36:d8:de:dc:3a:d0:35:52:cb:55:d3:0f:3b:f4:34:
                    b5:a2:fa:9b:20:72:5b:26:36:a5:53:c3:53:e4:e7:
                    1f:3c:c3:5b:12:9c:60:91:e0:22:5e:72:f1:b1:32:
                    35:00:f6:0c:3f:f5:2b:2e:7b:e2:54:a2:e6:24:cb:
                    7b:50:08:c1:bb:2e:af:be:58:90:20:be:c1:08:a3:
                    87:33:62:03:72:c5:64:88:ae:4f:35:61:df:d6:10:
                    b6:46:30:41:fc:e1:6f:3d:15:5f:20:73:fa:c3:4f:
                    a5:64:07:4a:d5:f5:78:d1:75:ec:29:ba:10:b7:2e:
                    a1:71:93:2d:c8:73:ca:aa:a9:c0:83:71:60:b0:fc:
                    41:fd:62:89:ed:d4:df:33:64:1f:38:60:0f:75:5c:
                    a8:e6:58:b2:df:5c:b4:11:28:a8:d4:8b:88:3b:74:
                    43:90:31:c7:1a:a2:d7:d5:f6:6a:ff:8a:81:71:64:
                    87:31:d4:d2:c6:4c:54:ff:a4:3f:6a:6f:7d:36:cc:
                    5f:b1:ff:34:42:e8:7d:b5:b6:bb:3f:8a:40:8a:75:
                    05:dc:d5:c7:cd:a4:41:9f:f0:62:99:41:ce:6b:5c:
                    e0:8e:e0:db:59:f6:93:f3:60:60:83:6b:60:c5:e7:
                    92:2d:d0:b8:f2:9f:93:0f:18:d9:f9:ad:ca:b1:d2:
                    e5:ff:3a:6f:da:30:ac:cb:6b:63:b9:97:f0:ef:f4:
                    06:67:ff:86:8e:8f:78:cb:a1:d2:87:ef:3b:0f:71:
                    c0:60:b7:ac:8f:8b:ef:8d:6f:c4:01:89:4e:2b:29:
                    c4:64:12:97:7c:08:11:9b:3c:8c:33:e6:55:95:63:
                    20:e1:ca:4a:76:96:81:c8:70:99:b8:e1:e7:ba:31:
                    7c:4f:3b:e5:1b:4d:df:63:5d:56:21:88:b9:d1:16:
                    5c:a2:ac:e3:b7:ce:33:8a:7f:63:27:b9:4a:2b:71:
                    98:c2:4e:92:73:91:03:ee:a1:3b:4a:78:68:ef:60:
                    cb:de:38:66:f1:b5:32:4b:2a:71:56:1b:b5:50:d0:
                    0f:88:9d:80:e2:94:b9:c1:b0:77:00:a9:29:bd:05:
                    6a:68:2d:e3:1c:97:ce:5f:b9:12:f2:52:b9:02:8a:
                    ec:de:41:62:cb:a7:67:4e:d2:93:d9:37:0f:b0:71:
                    0f:84:56:d2:02:e3:a8:37:eb:b3:51:10:1f:ee:05:
                    8b:48:41:7a:35:8a:81:d5:7f:39:4e:25:fd:b3:b6:
                    1c:97:39
                Exponent: 65537 (0x10001)
        X509v3 extensions:
            X509v3 Key Usage: critical
                Digital Signature, Key Encipherment
            X509v3 Extended Key Usage: 
                TLS Web Server Authentication, TLS Web Client Authentication
            X509v3 Basic Constraints: critical
                CA:FALSE
            X509v3 Subject Key Identifier: 
                B7:45:B2:17:F5:0C:59:8F:7C:4B:4C:19:61:CB:C9:BE:5D:B6:F1:44
            X509v3 Authority Key Identifier: 
                keyid:92:92:9F:31:61:91:A3:81:A7:CE:50:5B:F3:09:30:A9:E1:56:1F:A3

    Signature Algorithm: sha1WithRSAEncryption
         57:dc:e2:32:4b:6e:db:cc:61:b0:f9:fa:1d:53:91:d5:56:8c:
         98:b9:b1:25:ee:3a:ed:70:28:fc:55:10:5c:fc:25:45:8a:81:
         af:8c:45:df:7a:a4:c2:2f:b2:eb:ae:2b:4a:b7:c5:e3:38:c1:
         f3:04:e7:ff:23:34:ee:90:df:c2:0a:5a:73:33:99:fc:c0:cd:
         99:82:c8:e0:a4:0a:78:1b:39:aa:a8:9d:ac:8f:63:87:a8:85:
         d6:5b:c1:92:1d:99:da:65:db:67:58:fe:7b:ea:2b:92:7b:1b:
         4b:34:7b:64:66:55:2a:ed:6c:41:a0:c1:9a:5e:9d:5c:4e:21:
         1f:e4:62:0b:61:f0:a3:04:e2:79:90:9e:a8:9b:fa:3d:f3:fb:
         08:af:fa:8e:10:4a:b1:eb:50:2c:bf:40:3f:7b:40:f1:9c:27:
         a7:56:44:c9:1e:06:ea:ea:54:20:50:67:e5:dc:3f:2f:d1:98:
         9d:18:2a:ea:f7:02:29:be:46:0d:9f:af:37:bd:d7:6c:ed:63:
         36:83:95:7d:d5:dd:23:25:01:e8:87:e1:c8:60:20:0f:2e:0b:
         9d:1b:4e:f7:91:74:f8:19:13:5b:2f:f8:19:85:cf:df:47:26:
         94:6e:56:1d:e7:83:f7:d1:44:04:f4:df:6a:4e:2a:46:69:52:
         69:a5:6e:55:97:d1:c7:fd:86:4a:0d:9c:55:02:54:aa:5c:69:
         e8:48:d2:64:bc:24:e6:9d:96:cc:9f:5c:f2:b2:f1:fb:cc:e5:
         3c:ae:dc:bd:27:d8:10:1e:d2:67:fa:16:a2:65:23:46:57:1a:
         36:c0:41:34:7a:48:b2:6a:98:f8:16:1a:f2:03:06:9b:3d:80:
         0e:7c:4a:87:de:34:f9:9a:e3:58:ce:90:8f:45:c1:e0:01:8e:
         2d:9e:5a:c1:36:6f:9f:69:96:dc:5b:d6:f9:64:1f:6c:af:b4:
         26:3c:1f:51:54:6e:98:af:b4:03:40:e2:2a:85:a6:8d:58:6a:
         1e:1e:9f:f4:d3:8f:76:73:25:0e:98:85:d9:49:5f:b2:1f:27:
         2e:53:19:78:89:bc:73:cf:2f:e3:9b:c1:3e:45:4c:07:2c:d1:
         82:c8:cc:09:b4:f1:cf:14:89:dd:74:5e:b9:e9:15:36:fe:9e:
         6f:b4:64:6c:31:03:c6:b6:28:61:20:5e:6c:2a:e1:36:cb:e4:
         44:07:ba:d6:55:6c:96:35:29:3c:bf:39:f4:6f:0b:39:cb:86:
         0f:8d:1c:d3:a6:e7:bc:6e:71:fe:ef:d6:3d:40:5a:ce:5c:d3:
         c3:4a:7f:25:86:10:07:1b:4c:73:55:1e:4e:ba:b7:b2:59:35:
         d7:9e:f5:10:84:07:ff:5d
-----BEGIN CERTIFICATE-----
MIIFvzCCA6egAwIBAgIFE5CXQkgwDQYJKoZIhvcNAQEFBQAwUjELMAkGA1UEBhMC
RkkxFjAUBgNVBAoTDVNwYWNlaWZ5IEluYy4xEDAOBgNVBAsTB1Jvb3QgQ0ExGTAX
BgNVBAMTEFNwYWNlaWZ5IFJvb3QgQ0EwHhcNMTQwNTA1MTAwMDAzWhcNMjQwNTAy
MTAwMDAzWjBvMQswCQYDVQQGEwJGSTEWMBQGA1UEChMNU3BhY2VpZnkgSW5jLjEs
MCoGA1UECxMjRWRnZSBDbGllbnQgU2VydmVyICAtIDEzOTkyODM5NjU2MDIxGjAY
BgNVBAMTEWVkZ2Uuc3BhY2VpZnkubmV0MIICIjANBgkqhkiG9w0BAQEFAAOCAg8A
MIICCgKCAgEAtamHRzv7zJyJ8D/TV4rToxYTED8p6Tys0RqX7LEqGcCwAVvFxup8
XBMRl3822N7cOtA1UstV0w879DS1ovqbIHJbJjalU8NT5OcfPMNbEpxgkeAiXnLx
sTI1APYMP/UrLnviVKLmJMt7UAjBuy6vvliQIL7BCKOHM2IDcsVkiK5PNWHf1hC2
RjBB/OFvPRVfIHP6w0+lZAdK1fV40XXsKboQty6hcZMtyHPKqqnAg3FgsPxB/WKJ
7dTfM2QfOGAPdVyo5liy31y0ESio1IuIO3RDkDHHGqLX1fZq/4qBcWSHMdTSxkxU
/6Q/am99Nsxfsf80Quh9tba7P4pAinUF3NXHzaRBn/BimUHOa1zgjuDbWfaT82Bg
g2tgxeeSLdC48p+TDxjZ+a3KsdLl/zpv2jCsy2tjuZfw7/QGZ/+Gjo94y6HSh+87
D3HAYLesj4vvjW/EAYlOKynEZBKXfAgRmzyMM+ZVlWMg4cpKdpaByHCZuOHnujF8
TzvlG03fY11WIYi50RZcoqzjt84zin9jJ7lKK3GYwk6Sc5ED7qE7Snho72DL3jhm
8bUySypxVhu1UNAPiJ2A4pS5wbB3AKkpvQVqaC3jHJfOX7kS8lK5Aors3kFiy6dn
TtKT2TcPsHEPhFbSAuOoN+uzURAf7gWLSEF6NYqB1X85TiX9s7YclzkCAwEAAaN/
MH0wDgYDVR0PAQH/BAQDAgWgMB0GA1UdJQQWMBQGCCsGAQUFBwMBBggrBgEFBQcD
AjAMBgNVHRMBAf8EAjAAMB0GA1UdDgQWBBS3RbIX9QxZj3xLTBlhy8m+XbbxRDAf
BgNVHSMEGDAWgBSSkp8xYZGjgafOUFvzCTCp4VYfozANBgkqhkiG9w0BAQUFAAOC
AgEAV9ziMktu28xhsPn6HVOR1VaMmLmxJe467XAo/FUQXPwlRYqBr4xF33qkwi+y
664rSrfF4zjB8wTn/yM07pDfwgpaczOZ/MDNmYLI4KQKeBs5qqidrI9jh6iF1lvB
kh2Z2mXbZ1j+e+orknsbSzR7ZGZVKu1sQaDBml6dXE4hH+RiC2HwowTieZCeqJv6
PfP7CK/6jhBKsetQLL9AP3tA8Zwnp1ZEyR4G6upUIFBn5dw/L9GYnRgq6vcCKb5G
DZ+vN73XbO1jNoOVfdXdIyUB6IfhyGAgDy4LnRtO95F0+BkTWy/4GYXP30cmlG5W
HeeD99FEBPTfak4qRmlSaaVuVZfRx/2GSg2cVQJUqlxp6EjSZLwk5p2WzJ9c8rLx
+8zlPK7cvSfYEB7SZ/oWomUjRlcaNsBBNHpIsmqY+BYa8gMGmz2ADnxKh940+Zrj
WM6Qj0XB4AGOLZ5awTZvn2mW3FvW+WQfbK+0JjwfUVRumK+0A0DiKoWmjVhqHh6f
9NOPdnMlDpiF2Ulfsh8nLlMZeIm8c88v45vBPkVMByzRgsjMCbTxzxSJ3XReuekV
Nv6eb7RkbDEDxrYoYSBebCrhNsvkRAe61lVsljUpPL859G8LOcuGD40c06bnvG5x
/u/WPUBazlzTw0p/JYYQBxtMc1UeTrq3slk11571EIQH/10=
-----END CERTIFICATE-----
