Certificate:
    Data:
        Version: 3 (0x2)
        Serial Number:
            13:90:97:42:15
    Signature Algorithm: sha1WithRSAEncryption
        Issuer: C=FI, O=Spaceify Inc., OU=Root CA, CN=Spaceify Root CA
        Validity
            Not Before: Jan 29 05:44:21 2014 GMT
            Not After : Jan 27 05:44:21 2024 GMT
        Subject: C=FI, O=Spaceify Inc., OU=Edge Server, CN=edge.spaceify.net
        Subject Public Key Info:
            Public Key Algorithm: rsaEncryption
                Public-Key: (4096 bit)
                Modulus:
                    00:bb:25:18:7f:2e:3b:a0:95:a8:02:96:e9:2c:10:
                    e0:48:54:17:c1:a1:3a:dc:6c:13:20:8f:45:21:27:
                    ad:19:5a:d9:9d:7e:1d:a9:55:84:9e:eb:8e:bd:d3:
                    a5:47:28:73:f2:43:b6:65:fb:ef:ff:2c:18:cd:e9:
                    72:69:43:d3:ff:dd:9d:45:90:7a:f3:71:04:b0:28:
                    bf:70:dc:11:2b:00:14:30:a4:2b:6b:23:b1:61:64:
                    65:25:2f:95:75:e8:8a:30:b4:88:76:10:97:29:be:
                    9d:45:42:04:eb:86:e8:cb:45:31:7c:2e:b7:7c:26:
                    ec:48:78:f8:28:58:dd:13:05:61:ac:ba:6e:8f:dd:
                    53:e1:96:63:f9:00:60:29:0a:e7:62:c5:28:ac:ad:
                    f4:6e:d8:72:d0:1e:56:fe:2a:7e:d1:cd:c2:24:8a:
                    75:6a:7e:f7:0a:92:9e:75:77:54:5f:4c:ed:c8:0a:
                    93:2e:e8:0a:a2:6d:ce:5e:80:5a:df:9f:84:fb:55:
                    25:a9:98:e2:d7:1f:7a:3b:69:83:a6:ca:cc:fc:8a:
                    d4:b2:8c:ca:be:fa:d0:48:21:f0:e8:8e:74:a0:63:
                    22:59:95:a1:f3:d6:dd:04:f8:0b:5b:f8:02:96:0b:
                    48:25:f2:8f:31:0a:94:5a:06:ef:57:e6:d5:d9:27:
                    c9:f1:36:07:ff:0d:27:47:6b:a1:40:ff:ef:b9:64:
                    a7:b7:54:77:30:02:b6:1a:5d:4b:53:dd:46:ba:94:
                    04:6b:74:68:b0:6f:e1:28:6b:89:0d:32:cd:34:00:
                    bf:2d:cb:9d:53:00:22:c6:28:b3:eb:c9:71:12:c1:
                    84:3f:a1:d2:02:3a:bf:e3:be:d3:9c:33:09:88:d1:
                    4a:dc:77:9e:56:a3:cd:8e:fe:f7:78:6a:84:39:8e:
                    4f:15:50:a6:ff:13:3f:cc:a6:98:8d:4e:4c:e9:27:
                    d9:21:fe:ed:16:6b:bc:ab:a6:d9:de:37:aa:b4:38:
                    f3:da:94:81:30:7c:4e:b3:a0:5b:12:8d:53:a0:45:
                    26:6b:e4:94:78:f3:f1:9c:ef:52:bf:3f:51:b2:79:
                    98:53:a5:81:74:96:85:f6:b5:b6:30:6c:a4:c3:e3:
                    a2:8c:47:c8:9e:4e:80:ba:3c:15:8b:77:85:71:9b:
                    79:ff:92:a5:09:ac:86:88:6a:e1:32:5e:9c:17:1d:
                    6b:06:0d:17:82:68:9a:9a:9f:e6:2b:7e:25:60:32:
                    88:f9:fd:3b:ec:fe:2b:eb:d9:b8:fc:a0:62:71:d3:
                    b2:59:25:34:41:1c:3b:c6:fd:2a:c0:2b:bb:4c:d4:
                    67:70:4c:b7:71:13:77:bb:73:f0:27:f6:d1:fb:b1:
                    47:56:27
                Exponent: 65537 (0x10001)
        X509v3 extensions:
            X509v3 Key Usage: critical
                Digital Signature, Key Encipherment
            X509v3 Extended Key Usage: 
                TLS Web Server Authentication, TLS Web Client Authentication
            X509v3 Basic Constraints: critical
                CA:FALSE
            X509v3 Subject Key Identifier: 
                C2:33:94:87:46:1D:95:85:A7:88:39:51:3D:ED:05:5C:8E:02:00:1F
            X509v3 Authority Key Identifier: 
                keyid:92:92:9F:31:61:91:A3:81:A7:CE:50:5B:F3:09:30:A9:E1:56:1F:A3

    Signature Algorithm: sha1WithRSAEncryption
         99:ef:f9:19:d9:11:63:4a:33:12:7e:b2:79:85:cc:e0:9c:45:
         14:ef:c4:40:78:9f:12:e4:16:6d:9f:eb:c5:47:02:93:c3:b5:
         8b:6d:37:7d:bc:fe:83:34:87:6b:87:67:5d:d8:23:73:b9:68:
         73:0c:1b:68:82:83:5d:e8:5b:97:d9:82:57:62:99:ee:30:96:
         a9:95:15:45:dc:0f:88:22:5e:a9:47:a6:13:de:15:e2:4f:82:
         1d:c0:cb:87:cc:c6:44:8b:78:86:f9:7c:d5:2d:75:40:67:eb:
         f7:c2:b4:d4:5d:7a:12:3b:92:58:c5:1a:d6:e2:20:ae:7e:80:
         cb:a4:76:79:cd:b0:6e:a4:01:2f:6b:99:29:45:e8:f4:95:91:
         05:6c:ae:ea:79:7d:ab:be:4d:af:6d:51:00:12:af:1c:2c:6d:
         ad:34:e3:ea:74:8e:09:69:17:09:d6:20:a7:2d:c3:e8:94:c6:
         fc:9e:19:7a:af:b2:b7:d9:85:4e:68:e9:cd:3b:e4:08:5d:3c:
         5d:70:45:48:92:04:29:f9:a7:4c:dc:fd:f7:a1:7d:99:b1:88:
         1f:17:f1:6f:0f:24:9e:62:7d:de:70:7b:23:21:36:c7:11:3e:
         c5:09:95:13:0f:de:a3:c5:87:07:d5:66:a8:32:d7:28:3e:07:
         0f:a8:a8:10:b7:27:be:a3:83:29:68:f8:c2:d1:64:cd:8c:0c:
         20:0c:09:14:fc:b2:ab:2c:8c:0e:30:07:86:d8:d0:ae:14:05:
         b0:88:0e:05:18:6e:00:4d:9f:53:b4:54:e3:13:44:2e:64:5a:
         dc:11:67:e8:ba:9b:d9:d0:3d:d9:51:32:ea:0f:ee:27:73:23:
         fb:38:b8:68:0c:ea:16:ec:70:e4:d5:0a:4f:12:ec:5e:1b:d6:
         2d:7e:4c:cf:46:be:b5:c3:bf:0b:c6:ca:4a:b9:a1:c2:f0:3f:
         da:e8:ff:fe:21:67:71:ae:20:d1:13:a8:1f:c4:92:b8:07:fd:
         64:32:37:63:81:16:72:7f:33:21:df:c6:87:77:25:65:96:a5:
         5a:6f:3e:7a:3b:fd:37:f9:48:bb:b9:37:63:f2:80:7d:7d:5b:
         7b:46:09:2a:61:03:04:36:c8:41:a8:85:3d:0f:63:74:53:82:
         8a:64:cc:e0:fa:61:b5:df:7d:b9:82:99:31:01:f6:05:f6:9e:
         65:62:a7:48:d0:e8:dd:14:22:8f:5a:c8:ec:ea:3d:ce:67:89:
         f3:0f:40:25:23:0c:32:15:f5:c1:9f:56:8c:fa:1b:bf:69:af:
         68:9b:c4:5c:8e:d2:4b:47:ea:29:c2:45:d4:f9:33:ce:2c:a8:
         d9:36:19:a6:74:cf:f8:7c
-----BEGIN CERTIFICATE-----
MIIFpzCCA4+gAwIBAgIFE5CXQhUwDQYJKoZIhvcNAQEFBQAwUjELMAkGA1UEBhMC
RkkxFjAUBgNVBAoTDVNwYWNlaWZ5IEluYy4xEDAOBgNVBAsTB1Jvb3QgQ0ExGTAX
BgNVBAMTEFNwYWNlaWZ5IFJvb3QgQ0EwHhcNMTQwMTI5MDU0NDIxWhcNMjQwMTI3
MDU0NDIxWjBXMQswCQYDVQQGEwJGSTEWMBQGA1UEChMNU3BhY2VpZnkgSW5jLjEU
MBIGA1UECxMLRWRnZSBTZXJ2ZXIxGjAYBgNVBAMTEWVkZ2Uuc3BhY2VpZnkubmV0
MIICIjANBgkqhkiG9w0BAQEFAAOCAg8AMIICCgKCAgEAuyUYfy47oJWoApbpLBDg
SFQXwaE63GwTII9FISetGVrZnX4dqVWEnuuOvdOlRyhz8kO2Zfvv/ywYzelyaUPT
/92dRZB683EEsCi/cNwRKwAUMKQrayOxYWRlJS+VdeiKMLSIdhCXKb6dRUIE64bo
y0UxfC63fCbsSHj4KFjdEwVhrLpuj91T4ZZj+QBgKQrnYsUorK30bthy0B5W/ip+
0c3CJIp1an73CpKedXdUX0ztyAqTLugKom3OXoBa35+E+1UlqZji1x96O2mDpsrM
/IrUsozKvvrQSCHw6I50oGMiWZWh89bdBPgLW/gClgtIJfKPMQqUWgbvV+bV2SfJ
8TYH/w0nR2uhQP/vuWSnt1R3MAK2Gl1LU91GupQEa3RosG/hKGuJDTLNNAC/Lcud
UwAixiiz68lxEsGEP6HSAjq/477TnDMJiNFK3HeeVqPNjv73eGqEOY5PFVCm/xM/
zKaYjU5M6SfZIf7tFmu8q6bZ3jeqtDjz2pSBMHxOs6BbEo1ToEUma+SUePPxnO9S
vz9RsnmYU6WBdJaF9rW2MGykw+OijEfInk6AujwVi3eFcZt5/5KlCayGiGrhMl6c
Fx1rBg0Xgmiamp/mK34lYDKI+f077P4r69m4/KBicdOyWSU0QRw7xv0qwCu7TNRn
cEy3cRN3u3PwJ/bR+7FHVicCAwEAAaN/MH0wDgYDVR0PAQH/BAQDAgWgMB0GA1Ud
JQQWMBQGCCsGAQUFBwMBBggrBgEFBQcDAjAMBgNVHRMBAf8EAjAAMB0GA1UdDgQW
BBTCM5SHRh2VhaeIOVE97QVcjgIAHzAfBgNVHSMEGDAWgBSSkp8xYZGjgafOUFvz
CTCp4VYfozANBgkqhkiG9w0BAQUFAAOCAgEAme/5GdkRY0ozEn6yeYXM4JxFFO/E
QHifEuQWbZ/rxUcCk8O1i203fbz+gzSHa4dnXdgjc7locwwbaIKDXehbl9mCV2KZ
7jCWqZUVRdwPiCJeqUemE94V4k+CHcDLh8zGRIt4hvl81S11QGfr98K01F16EjuS
WMUa1uIgrn6Ay6R2ec2wbqQBL2uZKUXo9JWRBWyu6nl9q75Nr21RABKvHCxtrTTj
6nSOCWkXCdYgpy3D6JTG/J4Zeq+yt9mFTmjpzTvkCF08XXBFSJIEKfmnTNz996F9
mbGIHxfxbw8knmJ93nB7IyE2xxE+xQmVEw/eo8WHB9VmqDLXKD4HD6ioELcnvqOD
KWj4wtFkzYwMIAwJFPyyqyyMDjAHhtjQrhQFsIgOBRhuAE2fU7RU4xNELmRa3BFn
6Lqb2dA92VEy6g/uJ3Mj+zi4aAzqFuxw5NUKTxLsXhvWLX5Mz0a+tcO/C8bKSrmh
wvA/2uj//iFnca4g0ROoH8SSuAf9ZDI3Y4EWcn8zId/Gh3clZZalWm8+ejv9N/lI
u7k3Y/KAfX1be0YJKmEDBDbIQaiFPQ9jdFOCimTM4Pphtd99uYKZMQH2BfaeZWKn
SNDo3RQij1rI7Oo9zmeJ8w9AJSMMMhX1wZ9WjPobv2mvaJvEXI7SS0fqKcJF1Pkz
ziyo2TYZpnTP+Hw=
-----END CERTIFICATE-----
