Certificate:
    Data:
        Version: 3 (0x2)
        Serial Number:
            13:90:97:42:4a
    Signature Algorithm: sha1WithRSAEncryption
        Issuer: C=FI, O=Spaceify Inc., OU=Root CA, CN=Spaceify Root CA
        Validity
            Not Before: May 13 05:27:58 2014 GMT
            Not After : May 10 05:27:58 2024 GMT
        Subject: C=FI, O=Spaceify Inc., OU=Edge Client Server  - 1399958839656, CN=edge.spaceify.net
        Subject Public Key Info:
            Public Key Algorithm: rsaEncryption
                Public-Key: (4096 bit)
                Modulus:
                    00:b3:ff:b5:ba:b2:3e:a3:3c:78:70:3f:d6:bf:5c:
                    e3:16:cf:d1:a4:b0:9d:6b:15:0d:3e:f7:9a:0d:44:
                    fb:6c:40:66:a3:46:f3:ed:3a:4e:0e:81:cf:ae:6a:
                    c1:7a:02:4e:78:8a:47:c0:26:16:25:36:ec:ae:fb:
                    99:78:e3:56:05:23:1c:59:ef:82:b8:49:b2:7f:bc:
                    d5:25:cc:29:a0:ec:3e:c1:c1:fa:fc:65:c9:d6:88:
                    96:49:8d:48:99:95:d3:1f:02:85:d4:80:45:7d:97:
                    ef:f8:fc:77:be:45:24:cd:b9:70:41:01:2a:47:d2:
                    50:fe:fa:62:c2:89:0a:38:81:f8:e8:cc:6f:66:25:
                    b4:34:dd:e0:d0:3a:95:60:95:48:cb:df:a7:5c:fa:
                    1b:f5:8f:d2:87:1f:f8:e8:ea:b2:8b:4b:64:f5:d4:
                    34:5d:7a:83:a9:02:38:dc:d2:51:0e:71:4b:bf:f9:
                    39:da:37:95:63:d2:b1:7c:0c:da:7d:1a:0f:a5:01:
                    bb:60:0d:19:1e:0e:73:df:bb:83:e6:7d:e2:38:82:
                    e8:04:2e:e0:3c:c9:87:f7:80:0a:64:3e:5f:8f:d9:
                    c0:56:14:3a:29:81:7a:63:9f:43:b3:87:2f:db:8c:
                    16:52:13:ef:1d:0f:64:32:b3:07:20:42:45:ce:b2:
                    c7:4b:90:1a:09:98:26:40:e1:9f:dd:1b:ac:e3:9d:
                    83:82:01:ce:96:c9:3f:f0:99:55:39:20:59:09:21:
                    78:78:d6:9e:5a:7b:59:e2:74:48:7d:84:b7:fd:c5:
                    9a:4b:4e:b7:98:3d:00:8d:d4:32:8d:e5:09:18:28:
                    b2:22:36:03:83:71:5d:8d:3d:ee:21:39:15:a7:9c:
                    76:b7:a9:0d:b0:69:90:16:7e:50:9e:36:6f:12:cc:
                    e5:55:63:e2:3c:94:c0:87:72:47:b3:85:50:7a:73:
                    94:ec:69:29:9b:b4:85:33:ab:46:2b:9f:75:18:e7:
                    fd:24:6b:1a:c9:91:35:ea:fb:17:45:3e:3c:e4:22:
                    cd:70:2c:cc:e3:64:ac:fe:00:ed:a8:d9:4e:8c:fe:
                    11:dc:5f:8a:7e:76:96:a3:e9:01:12:58:93:38:93:
                    7c:dd:86:9e:aa:2d:65:bf:47:b8:24:e6:5f:4d:3d:
                    3d:fc:45:6b:bf:1b:d5:5d:1f:b7:3c:8c:c8:f1:d9:
                    da:ca:91:53:8c:59:cd:22:8c:4a:5a:58:aa:ec:54:
                    b2:f7:e7:8f:a4:20:bb:98:44:bd:7b:d0:6f:a8:1f:
                    05:3b:1c:2d:cc:2a:bf:38:af:2c:b5:1b:ca:46:8b:
                    6a:45:fa:a9:ee:ff:3c:fb:f3:71:a8:10:b6:68:31:
                    7e:15:c7
                Exponent: 65537 (0x10001)
        X509v3 extensions:
            X509v3 Key Usage: critical
                Digital Signature, Key Encipherment
            X509v3 Extended Key Usage: 
                TLS Web Server Authentication, TLS Web Client Authentication
            X509v3 Basic Constraints: critical
                CA:FALSE
            X509v3 Subject Key Identifier: 
                0B:73:D9:6D:22:1F:FA:25:BF:01:8D:BA:4E:FB:1E:BD:31:33:0B:18
            X509v3 Authority Key Identifier: 
                keyid:92:92:9F:31:61:91:A3:81:A7:CE:50:5B:F3:09:30:A9:E1:56:1F:A3

    Signature Algorithm: sha1WithRSAEncryption
         32:ec:8d:07:f4:85:7e:74:75:6c:b2:26:af:a4:5f:78:42:00:
         01:0d:21:45:70:19:44:1e:ca:57:4d:c5:68:b2:5f:55:42:6d:
         2d:38:8c:74:42:71:79:8d:0d:14:3b:cf:fc:80:1d:61:3e:0a:
         be:30:12:58:8b:60:b9:ef:a3:38:50:75:61:59:1b:30:8d:40:
         4d:1c:34:c2:b0:f0:d3:0e:c0:e7:f6:2b:04:65:60:fe:c0:41:
         9e:ab:71:3d:1f:ee:ad:af:2b:f6:3d:4b:5f:a5:e1:2a:0b:4a:
         fc:db:e6:57:95:8f:e2:cf:b7:29:6d:c0:13:39:b5:aa:df:e3:
         d9:dc:28:ac:ac:33:3d:93:60:0e:79:0d:05:e6:7f:e9:63:82:
         ab:56:cf:be:30:b1:94:ff:33:4f:34:63:4e:09:e8:36:68:67:
         25:84:59:bd:5f:cf:66:77:99:25:69:7c:ec:ec:a9:39:82:7b:
         98:22:86:0f:1a:4d:4b:d0:f8:18:7c:95:93:ae:58:ab:9a:6a:
         4f:c5:3d:c5:47:38:a7:a9:87:60:ad:89:21:f2:f5:8e:2e:ba:
         dd:33:d5:99:5b:d8:31:92:d5:ac:c0:78:4e:81:33:35:11:87:
         c5:0b:51:54:b8:0a:8c:67:8b:9f:46:7d:20:f5:f8:33:ac:c3:
         1f:d2:87:cc:97:eb:1f:47:62:0a:c5:b3:87:6b:cb:a5:f7:20:
         d0:51:27:7a:9d:47:e7:f5:10:f6:8c:0c:2f:75:a1:7c:80:0f:
         e4:74:82:eb:cf:3a:fb:1f:a0:b2:c7:c2:ee:d4:72:8b:12:e9:
         3b:24:d8:37:7a:ee:8f:34:13:8d:44:6c:bc:ac:0e:fa:3f:c0:
         a8:17:55:f0:6d:1e:f0:3b:53:c6:fd:b1:3f:dd:c9:af:23:68:
         7c:70:38:23:ac:54:69:92:19:75:71:1f:3d:a8:17:22:d9:39:
         df:12:cd:db:28:dc:da:59:29:55:d4:9b:85:20:59:95:9b:8e:
         6b:a8:88:53:37:43:10:b2:e4:cf:b6:2f:9b:12:4a:44:2b:15:
         83:59:b2:85:34:61:b2:b8:1c:04:b5:a5:7c:93:7e:b3:fd:36:
         c1:be:de:4c:f5:79:3d:04:44:c0:7b:14:45:08:b3:dd:ce:b5:
         3a:62:b2:12:59:26:f4:84:41:07:c6:96:c2:d1:4a:14:d1:8c:
         49:2f:97:9f:d1:8d:b2:a2:86:a1:b7:68:de:af:ee:2c:35:06:
         0d:d2:d4:1f:27:72:dd:a3:f8:9c:7e:0f:0e:d6:41:b6:1b:fc:
         3c:98:dd:72:48:eb:79:06:8f:de:84:1a:93:81:ec:9e:2d:d7:
         f9:b6:7a:d8:28:85:b4:03
-----BEGIN CERTIFICATE-----
MIIFvzCCA6egAwIBAgIFE5CXQkowDQYJKoZIhvcNAQEFBQAwUjELMAkGA1UEBhMC
RkkxFjAUBgNVBAoTDVNwYWNlaWZ5IEluYy4xEDAOBgNVBAsTB1Jvb3QgQ0ExGTAX
BgNVBAMTEFNwYWNlaWZ5IFJvb3QgQ0EwHhcNMTQwNTEzMDUyNzU4WhcNMjQwNTEw
MDUyNzU4WjBvMQswCQYDVQQGEwJGSTEWMBQGA1UEChMNU3BhY2VpZnkgSW5jLjEs
MCoGA1UECxMjRWRnZSBDbGllbnQgU2VydmVyICAtIDEzOTk5NTg4Mzk2NTYxGjAY
BgNVBAMTEWVkZ2Uuc3BhY2VpZnkubmV0MIICIjANBgkqhkiG9w0BAQEFAAOCAg8A
MIICCgKCAgEAs/+1urI+ozx4cD/Wv1zjFs/RpLCdaxUNPveaDUT7bEBmo0bz7TpO
DoHPrmrBegJOeIpHwCYWJTbsrvuZeONWBSMcWe+CuEmyf7zVJcwpoOw+wcH6/GXJ
1oiWSY1ImZXTHwKF1IBFfZfv+Px3vkUkzblwQQEqR9JQ/vpiwokKOIH46MxvZiW0
NN3g0DqVYJVIy9+nXPob9Y/Shx/46Oqyi0tk9dQ0XXqDqQI43NJRDnFLv/k52jeV
Y9KxfAzafRoPpQG7YA0ZHg5z37uD5n3iOILoBC7gPMmH94AKZD5fj9nAVhQ6KYF6
Y59Ds4cv24wWUhPvHQ9kMrMHIEJFzrLHS5AaCZgmQOGf3Rus452DggHOlsk/8JlV
OSBZCSF4eNaeWntZ4nRIfYS3/cWaS063mD0AjdQyjeUJGCiyIjYDg3FdjT3uITkV
p5x2t6kNsGmQFn5QnjZvEszlVWPiPJTAh3JHs4VQenOU7Gkpm7SFM6tGK591GOf9
JGsayZE16vsXRT485CLNcCzM42Ss/gDtqNlOjP4R3F+KfnaWo+kBEliTOJN83Yae
qi1lv0e4JOZfTT09/EVrvxvVXR+3PIzI8dnaypFTjFnNIoxKWliq7FSy9+ePpCC7
mES9e9BvqB8FOxwtzCq/OK8stRvKRotqRfqp7v88+/NxqBC2aDF+FccCAwEAAaN/
MH0wDgYDVR0PAQH/BAQDAgWgMB0GA1UdJQQWMBQGCCsGAQUFBwMBBggrBgEFBQcD
AjAMBgNVHRMBAf8EAjAAMB0GA1UdDgQWBBQLc9ltIh/6Jb8BjbpO+x69MTMLGDAf
BgNVHSMEGDAWgBSSkp8xYZGjgafOUFvzCTCp4VYfozANBgkqhkiG9w0BAQUFAAOC
AgEAMuyNB/SFfnR1bLImr6RfeEIAAQ0hRXAZRB7KV03FaLJfVUJtLTiMdEJxeY0N
FDvP/IAdYT4KvjASWItgue+jOFB1YVkbMI1ATRw0wrDw0w7A5/YrBGVg/sBBnqtx
PR/ura8r9j1LX6XhKgtK/NvmV5WP4s+3KW3AEzm1qt/j2dworKwzPZNgDnkNBeZ/
6WOCq1bPvjCxlP8zTzRjTgnoNmhnJYRZvV/PZneZJWl87OypOYJ7mCKGDxpNS9D4
GHyVk65Yq5pqT8U9xUc4p6mHYK2JIfL1ji663TPVmVvYMZLVrMB4ToEzNRGHxQtR
VLgKjGeLn0Z9IPX4M6zDH9KHzJfrH0diCsWzh2vLpfcg0FEnep1H5/UQ9owML3Wh
fIAP5HSC6886+x+gssfC7tRyixLpOyTYN3rujzQTjURsvKwO+j/AqBdV8G0e8DtT
xv2xP93JryNofHA4I6xUaZIZdXEfPagXItk53xLN2yjc2lkpVdSbhSBZlZuOa6iI
UzdDELLkz7YvmxJKRCsVg1myhTRhsrgcBLWlfJN+s/02wb7eTPV5PQREwHsURQiz
3c61OmKyElkm9IRBB8aWwtFKFNGMSS+Xn9GNsqKGobdo3q/uLDUGDdLUHydy3aP4
nH4PDtZBthv8PJjdckjreQaP3oQak4Hsni3X+bZ62CiFtAM=
-----END CERTIFICATE-----
